target datalayout = "e-m:e-p270:32:32-p271:32:32-p272:64:64-i64:64-i128:128-f80:128-n8:16:32:64-S128"
target triple = "x86_64-pc-linux-gnu"

@png_format_number.digits = internal constant [17 x i8] c"0123456789ABCDEF\00", align 16

; Function Attrs: nounwind uwtable
define ptr @png_format_number(ptr noundef %0, ptr noundef %1, i32 noundef %2, i64 noundef %3) #1 {
  %5 = alloca ptr, align 8
  %6 = alloca ptr, align 8
  %7 = alloca i32, align 4
  %8 = alloca i64, align 8
  %9 = alloca i32, align 4
  %10 = alloca i32, align 4
  %11 = alloca i32, align 4
  store ptr %0, ptr %5, align 8, !tbaa !8
  store ptr %1, ptr %6, align 8, !tbaa !8
  store i32 %2, ptr %7, align 4, !tbaa !31
  store i64 %3, ptr %8, align 8, !tbaa !27
  call void @llvm.lifetime.start.p0(i64 4, ptr %9) #10
  store i32 0, ptr %9, align 4, !tbaa !31
  call void @llvm.lifetime.start.p0(i64 4, ptr %10) #10
  store i32 1, ptr %10, align 4, !tbaa !31
  call void @llvm.lifetime.start.p0(i64 4, ptr %11) #10
  store i32 0, ptr %11, align 4, !tbaa !31
  %12 = load ptr, ptr %6, align 8, !tbaa !8
  %13 = getelementptr inbounds i8, ptr %12, i32 -1
  store ptr %13, ptr %6, align 8, !tbaa !8
  store i8 0, ptr %13, align 1, !tbaa !28
  br label %14

14:                                               ; preds = %95, %4
  %15 = load ptr, ptr %6, align 8, !tbaa !8
  %16 = load ptr, ptr %5, align 8, !tbaa !8
  %17 = icmp ugt ptr %15, %16
  br i1 %17, label %18, label %27

18:                                               ; preds = %14
  %19 = load i64, ptr %8, align 8, !tbaa !27
  %20 = icmp ne i64 %19, 0
  br i1 %20, label %25, label %21

21:                                               ; preds = %18
  %22 = load i32, ptr %9, align 4, !tbaa !31
  %23 = load i32, ptr %10, align 4, !tbaa !31
  %24 = icmp slt i32 %22, %23
  br label %25

25:                                               ; preds = %21, %18
  %26 = phi i1 [ true, %18 ], [ %24, %21 ]
  br label %27

27:                                               ; preds = %25, %14
  %28 = phi i1 [ false, %14 ], [ %26, %25 ]
  br i1 %28, label %29, label %96

29:                                               ; preds = %27
  %30 = load i32, ptr %7, align 4, !tbaa !31
  switch i32 %30, label %68 [
    i32 5, label %31
    i32 2, label %48
    i32 1, label %49
    i32 4, label %58
    i32 3, label %59
  ]

31:                                               ; preds = %29
  store i32 5, ptr %10, align 4, !tbaa !31
  %32 = load i32, ptr %11, align 4, !tbaa !31
  %33 = icmp ne i32 %32, 0
  br i1 %33, label %38, label %34

34:                                               ; preds = %31
  %35 = load i64, ptr %8, align 8, !tbaa !27
  %36 = urem i64 %35, 10
  %37 = icmp ne i64 %36, 0
  br i1 %37, label %38, label %45

38:                                               ; preds = %34, %31
  %39 = load i64, ptr %8, align 8, !tbaa !27
  %40 = urem i64 %39, 10
  %41 = getelementptr inbounds nuw [17 x i8], ptr @png_format_number.digits, i64 0, i64 %40
  %42 = load i8, ptr %41, align 1, !tbaa !28
  %43 = load ptr, ptr %6, align 8, !tbaa !8
  %44 = getelementptr inbounds i8, ptr %43, i32 -1
  store ptr %44, ptr %6, align 8, !tbaa !8
  store i8 %42, ptr %44, align 1, !tbaa !28
  store i32 1, ptr %11, align 4, !tbaa !31
  br label %45

45:                                               ; preds = %38, %34
  %46 = load i64, ptr %8, align 8, !tbaa !27
  %47 = udiv i64 %46, 10
  store i64 %47, ptr %8, align 8, !tbaa !27
  br label %69

48:                                               ; preds = %29
  store i32 2, ptr %10, align 4, !tbaa !31
  br label %49

49:                                               ; preds = %29, %48
  %50 = load i64, ptr %8, align 8, !tbaa !27
  %51 = urem i64 %50, 10
  %52 = getelementptr inbounds nuw [17 x i8], ptr @png_format_number.digits, i64 0, i64 %51
  %53 = load i8, ptr %52, align 1, !tbaa !28
  %54 = load ptr, ptr %6, align 8, !tbaa !8
  %55 = getelementptr inbounds i8, ptr %54, i32 -1
  store ptr %55, ptr %6, align 8, !tbaa !8
  store i8 %53, ptr %55, align 1, !tbaa !28
  %56 = load i64, ptr %8, align 8, !tbaa !27
  %57 = udiv i64 %56, 10
  store i64 %57, ptr %8, align 8, !tbaa !27
  br label %69

58:                                               ; preds = %29
  store i32 2, ptr %10, align 4, !tbaa !31
  br label %59

59:                                               ; preds = %29, %58
  %60 = load i64, ptr %8, align 8, !tbaa !27
  %61 = and i64 %60, 15
  %62 = getelementptr inbounds nuw [17 x i8], ptr @png_format_number.digits, i64 0, i64 %61
  %63 = load i8, ptr %62, align 1, !tbaa !28
  %64 = load ptr, ptr %6, align 8, !tbaa !8
  %65 = getelementptr inbounds i8, ptr %64, i32 -1
  store ptr %65, ptr %6, align 8, !tbaa !8
  store i8 %63, ptr %65, align 1, !tbaa !28
  %66 = load i64, ptr %8, align 8, !tbaa !27
  %67 = lshr i64 %66, 4
  store i64 %67, ptr %8, align 8, !tbaa !27
  br label %69

68:                                               ; preds = %29
  store i64 0, ptr %8, align 8, !tbaa !27
  br label %69

69:                                               ; preds = %68, %59, %49, %45
  %70 = load i32, ptr %9, align 4, !tbaa !31
  %71 = add nsw i32 %70, 1
  store i32 %71, ptr %9, align 4, !tbaa !31
  %72 = load i32, ptr %7, align 4, !tbaa !31
  %73 = icmp eq i32 %72, 5
  br i1 %73, label %74, label %95

74:                                               ; preds = %69
  %75 = load i32, ptr %9, align 4, !tbaa !31
  %76 = icmp eq i32 %75, 5
  br i1 %76, label %77, label %95

77:                                               ; preds = %74
  %78 = load ptr, ptr %6, align 8, !tbaa !8
  %79 = load ptr, ptr %5, align 8, !tbaa !8
  %80 = icmp ugt ptr %78, %79
  br i1 %80, label %81, label %95

81:                                               ; preds = %77
  %82 = load i32, ptr %11, align 4, !tbaa !31
  %83 = icmp ne i32 %82, 0
  br i1 %83, label %84, label %87

84:                                               ; preds = %81
  %85 = load ptr, ptr %6, align 8, !tbaa !8
  %86 = getelementptr inbounds i8, ptr %85, i32 -1
  store ptr %86, ptr %6, align 8, !tbaa !8
  store i8 46, ptr %86, align 1, !tbaa !28
  br label %94

87:                                               ; preds = %81
  %88 = load i64, ptr %8, align 8, !tbaa !27
  %89 = icmp eq i64 %88, 0
  br i1 %89, label %90, label %93

90:                                               ; preds = %87
  %91 = load ptr, ptr %6, align 8, !tbaa !8
  %92 = getelementptr inbounds i8, ptr %91, i32 -1
  store ptr %92, ptr %6, align 8, !tbaa !8
  store i8 48, ptr %92, align 1, !tbaa !28
  br label %93

93:                                               ; preds = %90, %87
  br label %94

94:                                               ; preds = %93, %84
  br label %95

95:                                               ; preds = %94, %77, %74, %69
  br label %14, !llvm.loop !32

96:                                               ; preds = %27
  %97 = load ptr, ptr %6, align 8, !tbaa !8
  call void @llvm.lifetime.end.p0(i64 4, ptr %11) #10
  call void @llvm.lifetime.end.p0(i64 4, ptr %10) #10
  call void @llvm.lifetime.end.p0(i64 4, ptr %9) #10
  ret ptr %97
}