; Function Attrs: nofree norecurse nosync nounwind memory(argmem: write) uwtable
define nonnull ptr @png_format_number(ptr noundef readnone captures(address) %0, ptr noundef writeonly captures(address, ret: address, provenance) initializes((-1, 0)) %1, i32 noundef %2, i64 noundef %3) local_unnamed_addr #3 {
  %5 = getelementptr inbounds i8, ptr %1, i64 -1
  store i8 0, ptr %5, align 1, !tbaa !24
  %6 = icmp ugt ptr %5, %0
  br i1 %6, label %.lr.ph, label %.critedge

.lr.ph:                                           ; preds = %4
  %7 = icmp eq i32 %2, 5
  br i1 %7, label %.lr.ph.split, label %.lr.ph.split.us

.lr.ph.split.us:                                  ; preds = %.lr.ph, %.thread.us
  %.056.us = phi i32 [ %.251.us, %.thread.us ], [ 0, %.lr.ph ]
  %.02855.us = phi i32 [ %.350.us, %.thread.us ], [ 1, %.lr.ph ]
  %.03154.us = phi i32 [ %33, %.thread.us ], [ 0, %.lr.ph ]
  %.03253.us = phi i64 [ %.13349.us, %.thread.us ], [ %3, %.lr.ph ]
  %.03452.us = phi ptr [ %.337.us, %.thread.us ], [ %5, %.lr.ph ]
  %8 = icmp ne i64 %.03253.us, 0
  %9 = icmp slt i32 %.03154.us, %.02855.us
  %10 = select i1 %8, i1 true, i1 %9
  br i1 %10, label %11, label %.critedge

11:                                               ; preds = %.lr.ph.split.us
  switch i32 %2, label %.thread.us [
    i32 5, label %26
    i32 2, label %19
    i32 1, label %20
    i32 4, label %12
    i32 3, label %13
  ]

12:                                               ; preds = %11
  br label %13

13:                                               ; preds = %12, %11
  %.230.us = phi i32 [ %.02855.us, %11 ], [ 2, %12 ]
  %14 = and i64 %.03253.us, 15
  %15 = getelementptr inbounds nuw [17 x i8], ptr @png_format_number.digits, i64 0, i64 %14
  %16 = load i8, ptr %15, align 1, !tbaa !24
  %17 = getelementptr inbounds i8, ptr %.03452.us, i64 -1
  store i8 %16, ptr %17, align 1, !tbaa !24
  %18 = lshr i64 %.03253.us, 4
  br label %.thread.us

19:                                               ; preds = %11
  br label %20

20:                                               ; preds = %19, %11
  %.129.us = phi i32 [ %.02855.us, %11 ], [ 2, %19 ]
  %21 = urem i64 %.03253.us, 10
  %22 = getelementptr inbounds nuw [17 x i8], ptr @png_format_number.digits, i64 0, i64 %21
  %23 = load i8, ptr %22, align 1, !tbaa !24
  %24 = getelementptr inbounds i8, ptr %.03452.us, i64 -1
  store i8 %23, ptr %24, align 1, !tbaa !24
  %25 = udiv i64 %.03253.us, 10
  br label %.thread.us

26:                                               ; preds = %11
  %.not.us = icmp eq i32 %.056.us, 0
  %27 = urem i64 %.03253.us, 10
  %28 = udiv i64 %.03253.us, 10
  %.not39.us = icmp eq i64 %27, 0
  %or.cond41.us = and i1 %.not.us, %.not39.us
  br i1 %or.cond41.us, label %.thread.us, label %29

29:                                               ; preds = %26
  %30 = getelementptr inbounds nuw [17 x i8], ptr @png_format_number.digits, i64 0, i64 %27
  %31 = load i8, ptr %30, align 1, !tbaa !24
  %32 = getelementptr inbounds i8, ptr %.03452.us, i64 -1
  store i8 %31, ptr %32, align 1, !tbaa !24
  br label %.thread.us

.thread.us:                                       ; preds = %26, %29, %11, %13, %20
  %.251.us = phi i32 [ %.056.us, %20 ], [ %.056.us, %13 ], [ %.056.us, %11 ], [ 1, %29 ], [ 0, %26 ]
  %.350.us = phi i32 [ %.129.us, %20 ], [ %.230.us, %13 ], [ %.02855.us, %11 ], [ 5, %29 ], [ 5, %26 ]
  %.13349.us = phi i64 [ %25, %20 ], [ %18, %13 ], [ 0, %11 ], [ %28, %29 ], [ %28, %26 ]
  %.337.us = phi ptr [ %24, %20 ], [ %17, %13 ], [ %.03452.us, %11 ], [ %32, %29 ], [ %.03452.us, %26 ]
  %33 = add nuw nsw i32 %.03154.us, 1
  %34 = icmp ugt ptr %.337.us, %0
  br i1 %34, label %.lr.ph.split.us, label %.critedge, !llvm.loop !27

.lr.ph.split:                                     ; preds = %.lr.ph, %55
  %.056 = phi i32 [ %.251, %55 ], [ 0, %.lr.ph ]
  %.02855 = phi i32 [ 5, %55 ], [ 1, %.lr.ph ]
  %.03154 = phi i32 [ %56, %55 ], [ 0, %.lr.ph ]
  %.03253 = phi i64 [ %.13349, %55 ], [ %3, %.lr.ph ]
  %.03452 = phi ptr [ %.337, %55 ], [ %5, %.lr.ph ]
  %35 = icmp ne i64 %.03253, 0
  %36 = icmp slt i32 %.03154, %.02855
  %37 = or i1 %35, %36
  br i1 %37, label %38, label %.critedge

38:                                               ; preds = %.lr.ph.split
  %.not = icmp eq i32 %.056, 0
  %39 = urem i64 %.03253, 10
  %40 = udiv i64 %.03253, 10
  %.not39 = icmp eq i64 %39, 0
  %or.cond41 = and i1 %.not, %.not39
  br i1 %or.cond41, label %41, label %.thread

41:                                               ; preds = %38
  %42 = udiv i64 %.03253, 10
  %43 = add nuw nsw i32 %.03154, 1
  %44 = icmp eq i32 %43, 5
  %45 = icmp ugt ptr %.03452, %0
  %or.cond42 = and i1 %44, %45
  br i1 %or.cond42, label %52, label %55

.thread:                                          ; preds = %38
  %46 = getelementptr inbounds nuw [17 x i8], ptr @png_format_number.digits, i64 0, i64 %39
  %47 = load i8, ptr %46, align 1, !tbaa !24
  %48 = getelementptr inbounds i8, ptr %.03452, i64 -1
  store i8 %47, ptr %48, align 1, !tbaa !24
  %49 = add nuw nsw i32 %.03154, 1
  %50 = icmp eq i32 %49, 5
  %51 = icmp ugt ptr %48, %0
  %or.cond4264 = and i1 %50, %51
  br i1 %or.cond4264, label %.sink.split, label %55

52:                                               ; preds = %41
  %53 = icmp ult i64 %.03253, 10
  br i1 %53, label %.sink.split, label %55

.sink.split:                                      ; preds = %52, %.thread
  %.sink75 = phi ptr [ %48, %.thread ], [ %.03452, %52 ]
  %.sink = phi i8 [ 46, %.thread ], [ 48, %52 ]
  %.251.ph = phi i32 [ 1, %.thread ], [ 0, %52 ]
  %.13349.ph = phi i64 [ %40, %.thread ], [ 0, %52 ]
  %54 = getelementptr inbounds i8, ptr %.sink75, i64 -1
  store i8 %.sink, ptr %54, align 1, !tbaa !24
  br label %55

55:                                               ; preds = %.sink.split, %.thread, %52, %41
  %56 = phi i32 [ 5, %52 ], [ %43, %41 ], [ %49, %.thread ], [ 5, %.sink.split ]
  %.251 = phi i32 [ 0, %52 ], [ 0, %41 ], [ 1, %.thread ], [ %.251.ph, %.sink.split ]
  %.13349 = phi i64 [ %42, %52 ], [ %42, %41 ], [ %40, %.thread ], [ %.13349.ph, %.sink.split ]
  %.337 = phi ptr [ %.03452, %52 ], [ %.03452, %41 ], [ %48, %.thread ], [ %54, %.sink.split ]
  %57 = icmp ugt ptr %.337, %0
  br i1 %57, label %.lr.ph.split, label %.critedge, !llvm.loop !27

.critedge:                                        ; preds = %.lr.ph.split.us, %.thread.us, %.lr.ph.split, %55, %4
  %.034.lcssa = phi ptr [ %5, %4 ], [ %.337, %55 ], [ %.03452, %.lr.ph.split ], [ %.337.us, %.thread.us ], [ %.03452.us, %.lr.ph.split.us ]
  ret ptr %.034.lcssa
}